target datalayout = "e-m:e-p270:32:32-p271:32:32-p272:64:64-i64:64-i128:128-f80:128-n8:16:32:64-S128"
target triple = "x86_64-pc-linux-gnu"

%struct.rb_data_type_struct = type { ptr, %struct.anon.12, ptr, ptr, i64 }
%struct.anon.12 = type { ptr, ptr, ptr, ptr, [1 x ptr] }
%struct.weakmap = type { ptr }
%struct.wmap_foreach_data = type { ptr, i64, ptr }

@weakmap_type = internal constant %struct.rb_data_type_struct { ptr @.str.20, %struct.anon.12 { ptr @wmap_mark, ptr @wmap_free, ptr @wmap_memsize, ptr @wmap_compact, [1 x ptr] zeroinitializer }, ptr null, ptr null, i64 35 }, align 8

; Function Attrs: inlinehint nounwind sspstrong uwtable
define internal void @ruby_sized_xfree_inlined(ptr noundef %0, i64 noundef %1) #3 {
  %3 = alloca ptr, align 8
  %4 = alloca i64, align 8
  store ptr %0, ptr %3, align 8, !tbaa !33
  store i64 %1, ptr %4, align 8, !tbaa !7
  %5 = load ptr, ptr %3, align 8, !tbaa !33
  call void @ruby_xfree(ptr noundef %5)
  ret void
}

; Function Attrs: nounwind sspstrong uwtable
define internal void @wmap_foreach(ptr noundef %0, ptr noundef %1, i64 noundef %2) #0 {
  %4 = alloca ptr, align 8
  %5 = alloca ptr, align 8
  %6 = alloca i64, align 8
  %7 = alloca %struct.wmap_foreach_data, align 8
  store ptr %0, ptr %4, align 8, !tbaa !11
  store ptr %1, ptr %5, align 8, !tbaa !33
  store i64 %2, ptr %6, align 8, !tbaa !7
  call void @llvm.lifetime.start.p0(i64 24, ptr %7) #15
  %8 = getelementptr inbounds nuw %struct.wmap_foreach_data, ptr %7, i32 0, i32 0
  %9 = load ptr, ptr %5, align 8, !tbaa !33
  store ptr %9, ptr %8, align 8, !tbaa !37
  %10 = getelementptr inbounds nuw %struct.wmap_foreach_data, ptr %7, i32 0, i32 1
  %11 = load i64, ptr %6, align 8, !tbaa !7
  store i64 %11, ptr %10, align 8, !tbaa !39
  %12 = getelementptr inbounds nuw %struct.wmap_foreach_data, ptr %7, i32 0, i32 2
  store ptr null, ptr %12, align 8, !tbaa !40
  %13 = load ptr, ptr %4, align 8, !tbaa !11
  %14 = getelementptr inbounds nuw %struct.weakmap, ptr %13, i32 0, i32 0
  %15 = load ptr, ptr %14, align 8, !tbaa !14
  %16 = ptrtoint ptr %7 to i64
  %17 = call i32 @rb_st_foreach(ptr noundef %15, ptr noundef @wmap_foreach_i, i64 noundef %16)
  %18 = getelementptr inbounds nuw %struct.wmap_foreach_data, ptr %7, i32 0, i32 2
  %19 = load ptr, ptr %18, align 8, !tbaa !40
  call void @ruby_sized_xfree_inlined(ptr noundef %19, i64 noundef 16)
  call void @llvm.lifetime.end.p0(i64 24, ptr %7) #15
  ret void
}

; Function Attrs: nounwind sspstrong uwtable
define internal i64 @wmap_values(i64 noundef %0) #0 {
  %2 = alloca i64, align 8
  %3 = alloca ptr, align 8
  %4 = alloca i64, align 8
  store i64 %0, ptr %2, align 8, !tbaa !7
  call void @llvm.lifetime.start.p0(i64 8, ptr %3) #15
  %5 = load i64, ptr %2, align 8, !tbaa !7
  %6 = call ptr @rb_check_typeddata(i64 noundef %5, ptr noundef @weakmap_type)
  store ptr %6, ptr %3, align 8, !tbaa !11
  call void @llvm.lifetime.start.p0(i64 8, ptr %4) #15
  %7 = call i64 @rb_ary_new()
  store i64 %7, ptr %4, align 8, !tbaa !7
  %8 = load ptr, ptr %3, align 8, !tbaa !11
  %9 = load i64, ptr %4, align 8, !tbaa !7
  call void @wmap_foreach(ptr noundef %8, ptr noundef @wmap_values_i, i64 noundef %9)
  %10 = load i64, ptr %4, align 8, !tbaa !7
  call void @llvm.lifetime.end.p0(i64 8, ptr %4) #15
  call void @llvm.lifetime.end.p0(i64 8, ptr %3) #15
  ret i64 %10
}